
babysteps:     file format elf32-i386


Disassembly of section .init:

08049000 <_init>:
 8049000:	53                   	push   %ebx
 8049001:	83 ec 08             	sub    $0x8,%esp
 8049004:	e8 d7 00 00 00       	call   80490e0 <__x86.get_pc_thunk.bx>
 8049009:	81 c3 f7 2f 00 00    	add    $0x2ff7,%ebx
 804900f:	8b 83 f4 ff ff ff    	mov    -0xc(%ebx),%eax
 8049015:	85 c0                	test   %eax,%eax
 8049017:	74 02                	je     804901b <_init+0x1b>
 8049019:	ff d0                	call   *%eax
 804901b:	83 c4 08             	add    $0x8,%esp
 804901e:	5b                   	pop    %ebx
 804901f:	c3                   	ret    

Disassembly of section .plt:

08049020 <setbuf@plt-0x10>:
 8049020:	ff 35 04 c0 04 08    	pushl  0x804c004
 8049026:	ff 25 08 c0 04 08    	jmp    *0x804c008
 804902c:	00 00                	add    %al,(%eax)
	...

08049030 <setbuf@plt>:
 8049030:	ff 25 0c c0 04 08    	jmp    *0x804c00c
 8049036:	68 00 00 00 00       	push   $0x0
 804903b:	e9 e0 ff ff ff       	jmp    8049020 <_init+0x20>

08049040 <gets@plt>:
 8049040:	ff 25 10 c0 04 08    	jmp    *0x804c010
 8049046:	68 08 00 00 00       	push   $0x8
 804904b:	e9 d0 ff ff ff       	jmp    8049020 <_init+0x20>

08049050 <puts@plt>:
 8049050:	ff 25 14 c0 04 08    	jmp    *0x804c014
 8049056:	68 10 00 00 00       	push   $0x10
 804905b:	e9 c0 ff ff ff       	jmp    8049020 <_init+0x20>

08049060 <exit@plt>:
 8049060:	ff 25 18 c0 04 08    	jmp    *0x804c018
 8049066:	68 18 00 00 00       	push   $0x18
 804906b:	e9 b0 ff ff ff       	jmp    8049020 <_init+0x20>

08049070 <__libc_start_main@plt>:
 8049070:	ff 25 1c c0 04 08    	jmp    *0x804c01c
 8049076:	68 20 00 00 00       	push   $0x20
 804907b:	e9 a0 ff ff ff       	jmp    8049020 <_init+0x20>

08049080 <__isoc99_scanf@plt>:
 8049080:	ff 25 20 c0 04 08    	jmp    *0x804c020
 8049086:	68 28 00 00 00       	push   $0x28
 804908b:	e9 90 ff ff ff       	jmp    8049020 <_init+0x20>

Disassembly of section .text:

08049090 <_start>:
 8049090:	31 ed                	xor    %ebp,%ebp
 8049092:	5e                   	pop    %esi
 8049093:	89 e1                	mov    %esp,%ecx
 8049095:	83 e4 f0             	and    $0xfffffff0,%esp
 8049098:	50                   	push   %eax
 8049099:	54                   	push   %esp
 804909a:	52                   	push   %edx
 804909b:	e8 23 00 00 00       	call   80490c3 <_start+0x33>
 80490a0:	81 c3 60 2f 00 00    	add    $0x2f60,%ebx
 80490a6:	8d 83 10 d6 ff ff    	lea    -0x29f0(%ebx),%eax
 80490ac:	50                   	push   %eax
 80490ad:	8d 83 b0 d5 ff ff    	lea    -0x2a50(%ebx),%eax
 80490b3:	50                   	push   %eax
 80490b4:	51                   	push   %ecx
 80490b5:	56                   	push   %esi
 80490b6:	c7 c0 d1 92 04 08    	mov    $0x80492d1,%eax
 80490bc:	50                   	push   %eax
 80490bd:	e8 ae ff ff ff       	call   8049070 <__libc_start_main@plt>
 80490c2:	f4                   	hlt    
 80490c3:	8b 1c 24             	mov    (%esp),%ebx
 80490c6:	c3                   	ret    
 80490c7:	66 90                	xchg   %ax,%ax
 80490c9:	66 90                	xchg   %ax,%ax
 80490cb:	66 90                	xchg   %ax,%ax
 80490cd:	66 90                	xchg   %ax,%ax
 80490cf:	90                   	nop

080490d0 <_dl_relocate_static_pie>:
 80490d0:	c3                   	ret    
 80490d1:	66 90                	xchg   %ax,%ax
 80490d3:	66 90                	xchg   %ax,%ax
 80490d5:	66 90                	xchg   %ax,%ax
 80490d7:	66 90                	xchg   %ax,%ax
 80490d9:	66 90                	xchg   %ax,%ax
 80490db:	66 90                	xchg   %ax,%ax
 80490dd:	66 90                	xchg   %ax,%ax
 80490df:	90                   	nop

080490e0 <__x86.get_pc_thunk.bx>:
 80490e0:	8b 1c 24             	mov    (%esp),%ebx
 80490e3:	c3                   	ret    
 80490e4:	66 90                	xchg   %ax,%ax
 80490e6:	66 90                	xchg   %ax,%ax
 80490e8:	66 90                	xchg   %ax,%ax
 80490ea:	66 90                	xchg   %ax,%ax
 80490ec:	66 90                	xchg   %ax,%ax
 80490ee:	66 90                	xchg   %ax,%ax

080490f0 <deregister_tm_clones>:
 80490f0:	b8 2c c0 04 08       	mov    $0x804c02c,%eax
 80490f5:	3d 2c c0 04 08       	cmp    $0x804c02c,%eax
 80490fa:	74 24                	je     8049120 <deregister_tm_clones+0x30>
 80490fc:	b8 00 00 00 00       	mov    $0x0,%eax
 8049101:	85 c0                	test   %eax,%eax
 8049103:	74 1b                	je     8049120 <deregister_tm_clones+0x30>
 8049105:	55                   	push   %ebp
 8049106:	89 e5                	mov    %esp,%ebp
 8049108:	83 ec 14             	sub    $0x14,%esp
 804910b:	68 2c c0 04 08       	push   $0x804c02c
 8049110:	ff d0                	call   *%eax
 8049112:	83 c4 10             	add    $0x10,%esp
 8049115:	c9                   	leave  
 8049116:	c3                   	ret    
 8049117:	8d b4 26 00 00 00 00 	lea    0x0(%esi,%eiz,1),%esi
 804911e:	66 90                	xchg   %ax,%ax
 8049120:	c3                   	ret    
 8049121:	8d b4 26 00 00 00 00 	lea    0x0(%esi,%eiz,1),%esi
 8049128:	8d b4 26 00 00 00 00 	lea    0x0(%esi,%eiz,1),%esi
 804912f:	90                   	nop

08049130 <register_tm_clones>:
 8049130:	b8 2c c0 04 08       	mov    $0x804c02c,%eax
 8049135:	2d 2c c0 04 08       	sub    $0x804c02c,%eax
 804913a:	89 c2                	mov    %eax,%edx
 804913c:	c1 e8 1f             	shr    $0x1f,%eax
 804913f:	c1 fa 02             	sar    $0x2,%edx
 8049142:	01 d0                	add    %edx,%eax
 8049144:	d1 f8                	sar    %eax
 8049146:	74 20                	je     8049168 <register_tm_clones+0x38>
 8049148:	ba 00 00 00 00       	mov    $0x0,%edx
 804914d:	85 d2                	test   %edx,%edx
 804914f:	74 17                	je     8049168 <register_tm_clones+0x38>
 8049151:	55                   	push   %ebp
 8049152:	89 e5                	mov    %esp,%ebp
 8049154:	83 ec 10             	sub    $0x10,%esp
 8049157:	50                   	push   %eax
 8049158:	68 2c c0 04 08       	push   $0x804c02c
 804915d:	ff d2                	call   *%edx
 804915f:	83 c4 10             	add    $0x10,%esp
 8049162:	c9                   	leave  
 8049163:	c3                   	ret    
 8049164:	8d 74 26 00          	lea    0x0(%esi,%eiz,1),%esi
 8049168:	c3                   	ret    
 8049169:	8d b4 26 00 00 00 00 	lea    0x0(%esi,%eiz,1),%esi

08049170 <__do_global_dtors_aux>:
 8049170:	f3 0f 1e fb          	endbr32 
 8049174:	80 3d 2c c0 04 08 00 	cmpb   $0x0,0x804c02c
 804917b:	75 1b                	jne    8049198 <__do_global_dtors_aux+0x28>
 804917d:	55                   	push   %ebp
 804917e:	89 e5                	mov    %esp,%ebp
 8049180:	83 ec 08             	sub    $0x8,%esp
 8049183:	e8 68 ff ff ff       	call   80490f0 <deregister_tm_clones>
 8049188:	c6 05 2c c0 04 08 01 	movb   $0x1,0x804c02c
 804918f:	c9                   	leave  
 8049190:	c3                   	ret    
 8049191:	8d b4 26 00 00 00 00 	lea    0x0(%esi,%eiz,1),%esi
 8049198:	c3                   	ret    
 8049199:	8d b4 26 00 00 00 00 	lea    0x0(%esi,%eiz,1),%esi

080491a0 <frame_dummy>:
 80491a0:	f3 0f 1e fb          	endbr32 
 80491a4:	eb 8a                	jmp    8049130 <register_tm_clones>

080491a6 <setup>:
 80491a6:	55                   	push   %ebp
 80491a7:	89 e5                	mov    %esp,%ebp
 80491a9:	53                   	push   %ebx
 80491aa:	83 ec 04             	sub    $0x4,%esp
 80491ad:	e8 2e ff ff ff       	call   80490e0 <__x86.get_pc_thunk.bx>
 80491b2:	81 c3 4e 2e 00 00    	add    $0x2e4e,%ebx
 80491b8:	8b 83 fc ff ff ff    	mov    -0x4(%ebx),%eax
 80491be:	8b 00                	mov    (%eax),%eax
 80491c0:	83 ec 08             	sub    $0x8,%esp
 80491c3:	6a 00                	push   $0x0
 80491c5:	50                   	push   %eax
 80491c6:	e8 65 fe ff ff       	call   8049030 <setbuf@plt>
 80491cb:	83 c4 10             	add    $0x10,%esp
 80491ce:	8b 83 f8 ff ff ff    	mov    -0x8(%ebx),%eax
 80491d4:	8b 00                	mov    (%eax),%eax
 80491d6:	83 ec 08             	sub    $0x8,%esp
 80491d9:	6a 00                	push   $0x0
 80491db:	50                   	push   %eax
 80491dc:	e8 4f fe ff ff       	call   8049030 <setbuf@plt>
 80491e1:	83 c4 10             	add    $0x10,%esp
 80491e4:	90                   	nop
 80491e5:	8b 5d fc             	mov    -0x4(%ebp),%ebx
 80491e8:	c9                   	leave  
 80491e9:	c3                   	ret    

080491ea <whine>:
 80491ea:	55                   	push   %ebp
 80491eb:	89 e5                	mov    %esp,%ebp
 80491ed:	53                   	push   %ebx
 80491ee:	83 ec 04             	sub    $0x4,%esp
 80491f1:	e8 b6 03 00 00       	call   80495ac <__x86.get_pc_thunk.ax>
 80491f6:	05 0a 2e 00 00       	add    $0x2e0a,%eax
 80491fb:	83 ec 0c             	sub    $0xc,%esp
 80491fe:	8d 90 08 e0 ff ff    	lea    -0x1ff8(%eax),%edx
 8049204:	52                   	push   %edx
 8049205:	89 c3                	mov    %eax,%ebx
 8049207:	e8 44 fe ff ff       	call   8049050 <puts@plt>
 804920c:	83 c4 10             	add    $0x10,%esp
 804920f:	90                   	nop
 8049210:	8b 5d fc             	mov    -0x4(%ebp),%ebx
 8049213:	c9                   	leave  
 8049214:	c3                   	ret    

08049215 <scream>:
 8049215:	55                   	push   %ebp
 8049216:	89 e5                	mov    %esp,%ebp
 8049218:	53                   	push   %ebx
 8049219:	83 ec 04             	sub    $0x4,%esp
 804921c:	e8 8b 03 00 00       	call   80495ac <__x86.get_pc_thunk.ax>
 8049221:	05 df 2d 00 00       	add    $0x2ddf,%eax
 8049226:	83 ec 0c             	sub    $0xc,%esp
 8049229:	8d 90 40 e0 ff ff    	lea    -0x1fc0(%eax),%edx
 804922f:	52                   	push   %edx
 8049230:	89 c3                	mov    %eax,%ebx
 8049232:	e8 19 fe ff ff       	call   8049050 <puts@plt>
 8049237:	83 c4 10             	add    $0x10,%esp
 804923a:	90                   	nop
 804923b:	8b 5d fc             	mov    -0x4(%ebp),%ebx
 804923e:	c9                   	leave  
 804923f:	c3                   	ret    

08049240 <cry>:
 8049240:	55                   	push   %ebp
 8049241:	89 e5                	mov    %esp,%ebp
 8049243:	53                   	push   %ebx
 8049244:	83 ec 04             	sub    $0x4,%esp
 8049247:	e8 60 03 00 00       	call   80495ac <__x86.get_pc_thunk.ax>
 804924c:	05 b4 2d 00 00       	add    $0x2db4,%eax
 8049251:	83 ec 0c             	sub    $0xc,%esp
 8049254:	8d 90 78 e0 ff ff    	lea    -0x1f88(%eax),%edx
 804925a:	52                   	push   %edx
 804925b:	89 c3                	mov    %eax,%ebx
 804925d:	e8 ee fd ff ff       	call   8049050 <puts@plt>
 8049262:	83 c4 10             	add    $0x10,%esp
 8049265:	90                   	nop
 8049266:	8b 5d fc             	mov    -0x4(%ebp),%ebx
 8049269:	c9                   	leave  
 804926a:	c3                   	ret    

0804926b <sleep>:
 804926b:	55                   	push   %ebp
 804926c:	89 e5                	mov    %esp,%ebp
 804926e:	53                   	push   %ebx
 804926f:	83 ec 04             	sub    $0x4,%esp
 8049272:	e8 69 fe ff ff       	call   80490e0 <__x86.get_pc_thunk.bx>
 8049277:	81 c3 89 2d 00 00    	add    $0x2d89,%ebx
 804927d:	83 ec 0c             	sub    $0xc,%esp
 8049280:	8d 83 ab e0 ff ff    	lea    -0x1f55(%ebx),%eax
 8049286:	50                   	push   %eax
 8049287:	e8 c4 fd ff ff       	call   8049050 <puts@plt>
 804928c:	83 c4 10             	add    $0x10,%esp
 804928f:	83 ec 0c             	sub    $0xc,%esp
 8049292:	6a ff                	push   $0xffffffff
 8049294:	e8 c7 fd ff ff       	call   8049060 <exit@plt>

08049299 <ask_baby_name>:
 8049299:	55                   	push   %ebp
 804929a:	89 e5                	mov    %esp,%ebp
 804929c:	53                   	push   %ebx
 804929d:	83 ec 14             	sub    $0x14,%esp
 80492a0:	e8 3b fe ff ff       	call   80490e0 <__x86.get_pc_thunk.bx>
 80492a5:	81 c3 5b 2d 00 00    	add    $0x2d5b,%ebx
 80492ab:	83 ec 0c             	sub    $0xc,%esp
 80492ae:	8d 83 c0 e0 ff ff    	lea    -0x1f40(%ebx),%eax
 80492b4:	50                   	push   %eax
 80492b5:	e8 96 fd ff ff       	call   8049050 <puts@plt>
 80492ba:	83 c4 10             	add    $0x10,%esp
 80492bd:	83 ec 0c             	sub    $0xc,%esp
 80492c0:	8d 45 e8             	lea    -0x18(%ebp),%eax
 80492c3:	50                   	push   %eax
 80492c4:	e8 77 fd ff ff       	call   8049040 <gets@plt>
 80492c9:	83 c4 10             	add    $0x10,%esp
 80492cc:	8b 5d fc             	mov    -0x4(%ebp),%ebx
 80492cf:	c9                   	leave  
 80492d0:	c3                   	ret    

080492d1 <main>:
 80492d1:	8d 4c 24 04          	lea    0x4(%esp),%ecx
 80492d5:	83 e4 f0             	and    $0xfffffff0,%esp
 80492d8:	ff 71 fc             	pushl  -0x4(%ecx)
 80492db:	55                   	push   %ebp
 80492dc:	89 e5                	mov    %esp,%ebp
 80492de:	53                   	push   %ebx
 80492df:	51                   	push   %ecx
 80492e0:	83 ec 10             	sub    $0x10,%esp
 80492e3:	e8 f8 fd ff ff       	call   80490e0 <__x86.get_pc_thunk.bx>
 80492e8:	81 c3 18 2d 00 00    	add    $0x2d18,%ebx
 80492ee:	e8 b3 fe ff ff       	call   80491a6 <setup>
 80492f3:	83 ec 0c             	sub    $0xc,%esp
 80492f6:	8d 83 df e0 ff ff    	lea    -0x1f21(%ebx),%eax
 80492fc:	50                   	push   %eax
 80492fd:	e8 4e fd ff ff       	call   8049050 <puts@plt>
 8049302:	83 c4 10             	add    $0x10,%esp
 8049305:	83 ec 0c             	sub    $0xc,%esp
 8049308:	8d 83 f1 e0 ff ff    	lea    -0x1f0f(%ebx),%eax
 804930e:	50                   	push   %eax
 804930f:	e8 3c fd ff ff       	call   8049050 <puts@plt>
 8049314:	83 c4 10             	add    $0x10,%esp
 8049317:	83 ec 0c             	sub    $0xc,%esp
 804931a:	8d 83 06 e1 ff ff    	lea    -0x1efa(%ebx),%eax
 8049320:	50                   	push   %eax
 8049321:	e8 2a fd ff ff       	call   8049050 <puts@plt>
 8049326:	83 c4 10             	add    $0x10,%esp
 8049329:	83 ec 0c             	sub    $0xc,%esp
 804932c:	8d 83 1c e1 ff ff    	lea    -0x1ee4(%ebx),%eax
 8049332:	50                   	push   %eax
 8049333:	e8 18 fd ff ff       	call   8049050 <puts@plt>
 8049338:	83 c4 10             	add    $0x10,%esp
 804933b:	83 ec 0c             	sub    $0xc,%esp
 804933e:	8d 83 33 e1 ff ff    	lea    -0x1ecd(%ebx),%eax
 8049344:	50                   	push   %eax
 8049345:	e8 06 fd ff ff       	call   8049050 <puts@plt>
 804934a:	83 c4 10             	add    $0x10,%esp
 804934d:	83 ec 0c             	sub    $0xc,%esp
 8049350:	8d 83 4b e1 ff ff    	lea    -0x1eb5(%ebx),%eax
 8049356:	50                   	push   %eax
 8049357:	e8 f4 fc ff ff       	call   8049050 <puts@plt>
 804935c:	83 c4 10             	add    $0x10,%esp
 804935f:	83 ec 0c             	sub    $0xc,%esp
 8049362:	8d 83 62 e1 ff ff    	lea    -0x1e9e(%ebx),%eax
 8049368:	50                   	push   %eax
 8049369:	e8 e2 fc ff ff       	call   8049050 <puts@plt>
 804936e:	83 c4 10             	add    $0x10,%esp
 8049371:	83 ec 0c             	sub    $0xc,%esp
 8049374:	8d 83 78 e1 ff ff    	lea    -0x1e88(%ebx),%eax
 804937a:	50                   	push   %eax
 804937b:	e8 d0 fc ff ff       	call   8049050 <puts@plt>
 8049380:	83 c4 10             	add    $0x10,%esp
 8049383:	83 ec 0c             	sub    $0xc,%esp
 8049386:	8d 83 8e e1 ff ff    	lea    -0x1e72(%ebx),%eax
 804938c:	50                   	push   %eax
 804938d:	e8 be fc ff ff       	call   8049050 <puts@plt>
 8049392:	83 c4 10             	add    $0x10,%esp
 8049395:	83 ec 0c             	sub    $0xc,%esp
 8049398:	8d 83 a5 e1 ff ff    	lea    -0x1e5b(%ebx),%eax
 804939e:	50                   	push   %eax
 804939f:	e8 ac fc ff ff       	call   8049050 <puts@plt>
 80493a4:	83 c4 10             	add    $0x10,%esp
 80493a7:	83 ec 0c             	sub    $0xc,%esp
 80493aa:	8d 83 bd e1 ff ff    	lea    -0x1e43(%ebx),%eax
 80493b0:	50                   	push   %eax
 80493b1:	e8 9a fc ff ff       	call   8049050 <puts@plt>
 80493b6:	83 c4 10             	add    $0x10,%esp
 80493b9:	83 ec 0c             	sub    $0xc,%esp
 80493bc:	8d 83 d7 e1 ff ff    	lea    -0x1e29(%ebx),%eax
 80493c2:	50                   	push   %eax
 80493c3:	e8 88 fc ff ff       	call   8049050 <puts@plt>
 80493c8:	83 c4 10             	add    $0x10,%esp
 80493cb:	83 ec 0c             	sub    $0xc,%esp
 80493ce:	8d 83 f1 e1 ff ff    	lea    -0x1e0f(%ebx),%eax
 80493d4:	50                   	push   %eax
 80493d5:	e8 76 fc ff ff       	call   8049050 <puts@plt>
 80493da:	83 c4 10             	add    $0x10,%esp
 80493dd:	83 ec 0c             	sub    $0xc,%esp
 80493e0:	8d 83 07 e2 ff ff    	lea    -0x1df9(%ebx),%eax
 80493e6:	50                   	push   %eax
 80493e7:	e8 64 fc ff ff       	call   8049050 <puts@plt>
 80493ec:	83 c4 10             	add    $0x10,%esp
 80493ef:	83 ec 0c             	sub    $0xc,%esp
 80493f2:	8d 83 1d e2 ff ff    	lea    -0x1de3(%ebx),%eax
 80493f8:	50                   	push   %eax
 80493f9:	e8 52 fc ff ff       	call   8049050 <puts@plt>
 80493fe:	83 c4 10             	add    $0x10,%esp
 8049401:	83 ec 0c             	sub    $0xc,%esp
 8049404:	8d 83 33 e2 ff ff    	lea    -0x1dcd(%ebx),%eax
 804940a:	50                   	push   %eax
 804940b:	e8 40 fc ff ff       	call   8049050 <puts@plt>
 8049410:	83 c4 10             	add    $0x10,%esp
 8049413:	83 ec 0c             	sub    $0xc,%esp
 8049416:	8d 83 49 e2 ff ff    	lea    -0x1db7(%ebx),%eax
 804941c:	50                   	push   %eax
 804941d:	e8 2e fc ff ff       	call   8049050 <puts@plt>
 8049422:	83 c4 10             	add    $0x10,%esp
 8049425:	83 ec 0c             	sub    $0xc,%esp
 8049428:	8d 83 5f e2 ff ff    	lea    -0x1da1(%ebx),%eax
 804942e:	50                   	push   %eax
 804942f:	e8 1c fc ff ff       	call   8049050 <puts@plt>
 8049434:	83 c4 10             	add    $0x10,%esp
 8049437:	83 ec 0c             	sub    $0xc,%esp
 804943a:	8d 83 75 e2 ff ff    	lea    -0x1d8b(%ebx),%eax
 8049440:	50                   	push   %eax
 8049441:	e8 0a fc ff ff       	call   8049050 <puts@plt>
 8049446:	83 c4 10             	add    $0x10,%esp
 8049449:	83 ec 0c             	sub    $0xc,%esp
 804944c:	8d 83 76 e2 ff ff    	lea    -0x1d8a(%ebx),%eax
 8049452:	50                   	push   %eax
 8049453:	e8 f8 fb ff ff       	call   8049050 <puts@plt>
 8049458:	83 c4 10             	add    $0x10,%esp
 804945b:	83 ec 0c             	sub    $0xc,%esp
 804945e:	8d 83 92 e2 ff ff    	lea    -0x1d6e(%ebx),%eax
 8049464:	50                   	push   %eax
 8049465:	e8 e6 fb ff ff       	call   8049050 <puts@plt>
 804946a:	83 c4 10             	add    $0x10,%esp
 804946d:	83 ec 0c             	sub    $0xc,%esp
 8049470:	8d 83 ac e2 ff ff    	lea    -0x1d54(%ebx),%eax
 8049476:	50                   	push   %eax
 8049477:	e8 d4 fb ff ff       	call   8049050 <puts@plt>
 804947c:	83 c4 10             	add    $0x10,%esp
 804947f:	83 ec 0c             	sub    $0xc,%esp
 8049482:	8d 83 75 e2 ff ff    	lea    -0x1d8b(%ebx),%eax
 8049488:	50                   	push   %eax
 8049489:	e8 c2 fb ff ff       	call   8049050 <puts@plt>
 804948e:	83 c4 10             	add    $0x10,%esp
 8049491:	e8 03 fe ff ff       	call   8049299 <ask_baby_name>
 8049496:	83 ec 0c             	sub    $0xc,%esp
 8049499:	8d 83 e8 e2 ff ff    	lea    -0x1d18(%ebx),%eax
 804949f:	50                   	push   %eax
 80494a0:	e8 ab fb ff ff       	call   8049050 <puts@plt>
 80494a5:	83 c4 10             	add    $0x10,%esp
 80494a8:	83 ec 0c             	sub    $0xc,%esp
 80494ab:	8d 83 10 e3 ff ff    	lea    -0x1cf0(%ebx),%eax
 80494b1:	50                   	push   %eax
 80494b2:	e8 99 fb ff ff       	call   8049050 <puts@plt>
 80494b7:	83 c4 10             	add    $0x10,%esp
 80494ba:	83 ec 0c             	sub    $0xc,%esp
 80494bd:	8d 83 27 e3 ff ff    	lea    -0x1cd9(%ebx),%eax
 80494c3:	50                   	push   %eax
 80494c4:	e8 87 fb ff ff       	call   8049050 <puts@plt>
 80494c9:	83 c4 10             	add    $0x10,%esp
 80494cc:	83 ec 0c             	sub    $0xc,%esp
 80494cf:	8d 83 30 e3 ff ff    	lea    -0x1cd0(%ebx),%eax
 80494d5:	50                   	push   %eax
 80494d6:	e8 75 fb ff ff       	call   8049050 <puts@plt>
 80494db:	83 c4 10             	add    $0x10,%esp
 80494de:	83 ec 0c             	sub    $0xc,%esp
 80494e1:	8d 83 37 e3 ff ff    	lea    -0x1cc9(%ebx),%eax
 80494e7:	50                   	push   %eax
 80494e8:	e8 63 fb ff ff       	call   8049050 <puts@plt>
 80494ed:	83 c4 10             	add    $0x10,%esp
 80494f0:	83 ec 0c             	sub    $0xc,%esp
 80494f3:	8d 83 41 e3 ff ff    	lea    -0x1cbf(%ebx),%eax
 80494f9:	50                   	push   %eax
 80494fa:	e8 51 fb ff ff       	call   8049050 <puts@plt>
 80494ff:	83 c4 10             	add    $0x10,%esp
 8049502:	83 ec 0c             	sub    $0xc,%esp
 8049505:	8d 83 5b e3 ff ff    	lea    -0x1ca5(%ebx),%eax
 804950b:	50                   	push   %eax
 804950c:	e8 3f fb ff ff       	call   8049050 <puts@plt>
 8049511:	83 c4 10             	add    $0x10,%esp
 8049514:	83 ec 08             	sub    $0x8,%esp
 8049517:	8d 45 f7             	lea    -0x9(%ebp),%eax
 804951a:	50                   	push   %eax
 804951b:	8d 83 65 e3 ff ff    	lea    -0x1c9b(%ebx),%eax
 8049521:	50                   	push   %eax
 8049522:	e8 59 fb ff ff       	call   8049080 <__isoc99_scanf@plt>
 8049527:	83 c4 10             	add    $0x10,%esp
 804952a:	0f b6 45 f7          	movzbl -0x9(%ebp),%eax
 804952e:	0f be c0             	movsbl %al,%eax
 8049531:	83 e8 61             	sub    $0x61,%eax
 8049534:	83 f8 04             	cmp    $0x4,%eax
 8049537:	77 45                	ja     804957e <.L10+0x7>
 8049539:	c1 e0 02             	shl    $0x2,%eax
 804953c:	8b 84 18 88 e3 ff ff 	mov    -0x1c78(%eax,%ebx,1),%eax
 8049543:	01 d8                	add    %ebx,%eax
 8049545:	ff e0                	jmp    *%eax

08049547 <.L15>:
 8049547:	e8 9e fc ff ff       	call   80491ea <whine>
 804954c:	eb 43                	jmp    8049591 <.L10+0x1a>

0804954e <.L14>:
 804954e:	e8 ed fc ff ff       	call   8049240 <cry>
 8049553:	eb 3c                	jmp    8049591 <.L10+0x1a>

08049555 <.L13>:
 8049555:	e8 bb fc ff ff       	call   8049215 <scream>
 804955a:	eb 35                	jmp    8049591 <.L10+0x1a>

0804955c <.L12>:
 804955c:	e8 b4 fc ff ff       	call   8049215 <scream>
 8049561:	e8 da fc ff ff       	call   8049240 <cry>
 8049566:	e8 7f fc ff ff       	call   80491ea <whine>
 804956b:	e8 d0 fc ff ff       	call   8049240 <cry>
 8049570:	e8 a0 fc ff ff       	call   8049215 <scream>
 8049575:	eb 1a                	jmp    8049591 <.L10+0x1a>

08049577 <.L10>:
 8049577:	e8 ef fc ff ff       	call   804926b <sleep>
 804957c:	eb 13                	jmp    8049591 <.L10+0x1a>
 804957e:	83 ec 0c             	sub    $0xc,%esp
 8049581:	8d 83 69 e3 ff ff    	lea    -0x1c97(%ebx),%eax
 8049587:	50                   	push   %eax
 8049588:	e8 c3 fa ff ff       	call   8049050 <puts@plt>
 804958d:	83 c4 10             	add    $0x10,%esp
 8049590:	90                   	nop
 8049591:	0f b6 45 f7          	movzbl -0x9(%ebp),%eax
 8049595:	3c 65                	cmp    $0x65,%al
 8049597:	0f 85 0b ff ff ff    	jne    80494a8 <main+0x1d7>
 804959d:	b8 00 00 00 00       	mov    $0x0,%eax
 80495a2:	8d 65 f8             	lea    -0x8(%ebp),%esp
 80495a5:	59                   	pop    %ecx
 80495a6:	5b                   	pop    %ebx
 80495a7:	5d                   	pop    %ebp
 80495a8:	8d 61 fc             	lea    -0x4(%ecx),%esp
 80495ab:	c3                   	ret    

080495ac <__x86.get_pc_thunk.ax>:
 80495ac:	8b 04 24             	mov    (%esp),%eax
 80495af:	c3                   	ret    

080495b0 <__libc_csu_init>:
 80495b0:	55                   	push   %ebp
 80495b1:	e8 5b 00 00 00       	call   8049611 <__x86.get_pc_thunk.bp>
 80495b6:	81 c5 4a 2a 00 00    	add    $0x2a4a,%ebp
 80495bc:	57                   	push   %edi
 80495bd:	56                   	push   %esi
 80495be:	53                   	push   %ebx
 80495bf:	83 ec 0c             	sub    $0xc,%esp
 80495c2:	89 eb                	mov    %ebp,%ebx
 80495c4:	8b 7c 24 28          	mov    0x28(%esp),%edi
 80495c8:	e8 33 fa ff ff       	call   8049000 <_init>
 80495cd:	8d 9d 08 ff ff ff    	lea    -0xf8(%ebp),%ebx
 80495d3:	8d 85 04 ff ff ff    	lea    -0xfc(%ebp),%eax
 80495d9:	29 c3                	sub    %eax,%ebx
 80495db:	c1 fb 02             	sar    $0x2,%ebx
 80495de:	74 25                	je     8049605 <__libc_csu_init+0x55>
 80495e0:	31 f6                	xor    %esi,%esi
 80495e2:	8d b6 00 00 00 00    	lea    0x0(%esi),%esi
 80495e8:	83 ec 04             	sub    $0x4,%esp
 80495eb:	57                   	push   %edi
 80495ec:	ff 74 24 2c          	pushl  0x2c(%esp)
 80495f0:	ff 74 24 2c          	pushl  0x2c(%esp)
 80495f4:	ff 94 b5 04 ff ff ff 	call   *-0xfc(%ebp,%esi,4)
 80495fb:	83 c6 01             	add    $0x1,%esi
 80495fe:	83 c4 10             	add    $0x10,%esp
 8049601:	39 f3                	cmp    %esi,%ebx
 8049603:	75 e3                	jne    80495e8 <__libc_csu_init+0x38>
 8049605:	83 c4 0c             	add    $0xc,%esp
 8049608:	5b                   	pop    %ebx
 8049609:	5e                   	pop    %esi
 804960a:	5f                   	pop    %edi
 804960b:	5d                   	pop    %ebp
 804960c:	c3                   	ret    
 804960d:	8d 76 00             	lea    0x0(%esi),%esi

08049610 <__libc_csu_fini>:
 8049610:	c3                   	ret    

08049611 <__x86.get_pc_thunk.bp>:
 8049611:	8b 2c 24             	mov    (%esp),%ebp
 8049614:	c3                   	ret    

Disassembly of section .fini:

08049618 <_fini>:
 8049618:	53                   	push   %ebx
 8049619:	83 ec 08             	sub    $0x8,%esp
 804961c:	e8 bf fa ff ff       	call   80490e0 <__x86.get_pc_thunk.bx>
 8049621:	81 c3 df 29 00 00    	add    $0x29df,%ebx
 8049627:	83 c4 08             	add    $0x8,%esp
 804962a:	5b                   	pop    %ebx
 804962b:	c3                   	ret    
